; Function Attrs: mustprogress uwtable
define dso_local void @_ZN25SimpleRuleBasedPathFilter7addRuleERK10ResKeyPathbR10UErrorCode(ptr noundef nonnull align 8 dereferenceable(72) %this, ptr noundef nonnull align 8 dereferenceable(24) %path, i1 noundef zeroext %inclusionRule, ptr noundef nonnull align 4 dereferenceable(4) %status) local_unnamed_addr #4 align 2 {
entry:
  %0 = load i32, ptr %status, align 4
  %cmp.i = icmp slt i32 %0, 1
  br i1 %cmp.i, label %if.end, label %return

if.end:                                           ; preds = %entry
  %fRoot = getelementptr inbounds i8, ptr %this, i64 8
  %1 = load ptr, ptr %path, align 8
  tail call void @_ZN25SimpleRuleBasedPathFilter4Tree9applyRuleERK10ResKeyPathSt20_List_const_iteratorINSt7__cxx1112basic_stringIcSt11char_traitsIcESaIcEEEEbR10UErrorCode(ptr noundef nonnull align 8 dereferenceable(64) %fRoot, ptr noundef nonnull align 8 dereferenceable(24) %path, ptr %1, i1 noundef zeroext %inclusionRule, ptr noundef nonnull align 4 dereferenceable(4) %status)
  br label %return

return:                                           ; preds = %entry, %if.end
  ret void
}